target datalayout = "e-m:e-p270:32:32-p271:32:32-p272:64:64-i64:64-i128:128-f80:128-n8:16:32:64-S128"
target triple = "x86_64-pc-linux-gnu"

%class.LogMessageBuffer = type { ptr, i64, i64, ptr, i64, i64, ptr, i8, i32, ptr }

@_ZTV16LogMessageBuffer = hidden unnamed_addr constant { [3 x ptr] } { [3 x ptr] [ptr null, ptr null, ptr @_ZN16LogMessageBuffer6vwriteEN8LogLevel4typeEPKcP13__va_list_tag] }, align 8

; Function Attrs: mustprogress nounwind uwtable
define hidden void @_ZN16LogMessageBufferD2Ev(ptr noundef nonnull align 8 dereferenceable(72) %0) unnamed_addr #1 align 2 {
  %2 = alloca ptr, align 8
  store ptr %0, ptr %2, align 8
  %3 = load ptr, ptr %2, align 8
  store ptr getelementptr inbounds inrange(-16, 8) ({ [3 x ptr] }, ptr @_ZTV16LogMessageBuffer, i32 0, i32 0, i32 2), ptr %3, align 8
  %4 = getelementptr inbounds %class.LogMessageBuffer, ptr %3, i32 0, i32 7
  %5 = load i8, ptr %4, align 8
  %6 = trunc i8 %5 to i1
  br i1 %6, label %7, label %12

7:                                                ; preds = %1
  %8 = getelementptr inbounds %class.LogMessageBuffer, ptr %3, i32 0, i32 3
  %9 = load ptr, ptr %8, align 8
  call void @_Z8FreeHeapPv(ptr noundef %9)
  %10 = getelementptr inbounds %class.LogMessageBuffer, ptr %3, i32 0, i32 6
  %11 = load ptr, ptr %10, align 8
  call void @_Z8FreeHeapPv(ptr noundef %11)
  br label %12

12:                                               ; preds = %7, %1
  ret void
}