; Function Attrs: mustprogress nounwind uwtable
define hidden void @_ZN16LogMessageBufferD2Ev(ptr nocapture noundef nonnull align 8 dereferenceable(72) %0) unnamed_addr #1 align 2 {
  store ptr getelementptr inbounds inrange(-16, 8) (i8, ptr @_ZTV16LogMessageBuffer, i64 16), ptr %0, align 8
  %2 = getelementptr inbounds i8, ptr %0, i64 56
  %3 = load i8, ptr %2, align 8
  %4 = trunc i8 %3 to i1
  br i1 %4, label %5, label %10

5:                                                ; preds = %1
  %6 = getelementptr inbounds i8, ptr %0, i64 24
  %7 = load ptr, ptr %6, align 8
  tail call void @_Z8FreeHeapPv(ptr noundef %7) #7
  %8 = getelementptr inbounds i8, ptr %0, i64 48
  %9 = load ptr, ptr %8, align 8
  tail call void @_Z8FreeHeapPv(ptr noundef %9) #7
  br label %10

10:                                               ; preds = %5, %1
  ret void
}